; Function Attrs: mustprogress uwtable
define noundef range(i32 -16, 1) i32 @_ZN4base4File4LockEv(ptr noundef nonnull align 8 dereferenceable(50) %0) local_unnamed_addr #0 align 2 personality ptr @__gxx_personality_v0 {
  %2 = alloca %struct.flock, align 8
  %3 = alloca %"class.base::FileTracing::ScopedTrace", align 8
  call void @llvm.lifetime.start.p0(i64 16, ptr nonnull %3) #14
  call void @_ZN4base11FileTracing11ScopedTraceC1Ev(ptr noundef nonnull align 8 dereferenceable(16) %3)
  %4 = invoke noundef zeroext i1 @_ZN4base11FileTracing17IsCategoryEnabledEv()
          to label %5 unwind label %.loopexit.split-lp

5:                                                ; preds = %1
  br i1 %4, label %6, label %8

6:                                                ; preds = %5
  invoke void @_ZN4base11FileTracing11ScopedTrace10InitializeEPKcPKNS_4FileEl(ptr noundef nonnull align 8 dereferenceable(16) %3, ptr noundef nonnull @.str.13, ptr noundef nonnull %0, i64 noundef 0)
          to label %8 unwind label %.loopexit.split-lp

.loopexit:                                        ; preds = %12
  %lpad.loopexit = landingpad { ptr, i32 }
          cleanup
  br label %7

.loopexit.split-lp:                               ; preds = %1, %6, %.critedge.i
  %lpad.loopexit.split-lp = landingpad { ptr, i32 }
          cleanup
  br label %7

7:                                                ; preds = %.loopexit.split-lp, %.loopexit
  %lpad.phi = phi { ptr, i32 } [ %lpad.loopexit, %.loopexit ], [ %lpad.loopexit.split-lp, %.loopexit.split-lp ]
  call void @_ZN4base11FileTracing11ScopedTraceD1Ev(ptr noundef nonnull align 8 dereferenceable(16) %3) #14
  call void @llvm.lifetime.end.p0(i64 16, ptr nonnull %3) #14
  resume { ptr, i32 } %lpad.phi

8:                                                ; preds = %6, %5
  %9 = load i32, ptr %0, align 8, !tbaa !27
  call void @llvm.lifetime.start.p0(i64 32, ptr nonnull %2) #14
  store i16 1, ptr %2, align 8, !tbaa !43
  %10 = getelementptr inbounds nuw i8, ptr %2, i64 2
  store i16 0, ptr %10, align 2, !tbaa !46
  %11 = getelementptr inbounds nuw i8, ptr %2, i64 8
  call void @llvm.memset.p0.i64(ptr noundef nonnull align 8 dereferenceable(16) %11, i8 0, i64 16, i1 false)
  br label %12

12:                                               ; preds = %15, %8
  %13 = invoke i32 (i32, i32, ...) @fcntl(i32 noundef %9, i32 noundef 6, ptr noundef nonnull %2)
          to label %.noexc unwind label %.loopexit

.noexc:                                           ; preds = %12
  %14 = icmp eq i32 %13, -1
  br i1 %14, label %15, label %.loopexit3

15:                                               ; preds = %.noexc
  %16 = tail call ptr @__errno_location() #15
  %17 = load i32, ptr %16, align 4, !tbaa !27
  %18 = icmp eq i32 %17, 4
  br i1 %18, label %12, label %.critedge.i, !llvm.loop !47

.critedge.i:                                      ; preds = %15
  %19 = invoke noundef i32 @_ZN4base4File18OSErrorToFileErrorEi(i32 noundef %17)
          to label %.loopexit3 unwind label %.loopexit.split-lp

.loopexit3:                                       ; preds = %.noexc, %.critedge.i
  %.0.i = phi i32 [ %19, %.critedge.i ], [ 0, %.noexc ]
  call void @llvm.lifetime.end.p0(i64 32, ptr nonnull %2) #14
  call void @_ZN4base11FileTracing11ScopedTraceD1Ev(ptr noundef nonnull align 8 dereferenceable(16) %3) #14
  call void @llvm.lifetime.end.p0(i64 16, ptr nonnull %3) #14
  ret i32 %.0.i
}